; Function Attrs: mustprogress nofree norecurse nosync nounwind willreturn memory(argmem: read) uwtable
define dso_local noundef i32 @_ZNK14b3QuantizedBvh28calculateSerializeBufferSizeEv(ptr noundef nonnull readonly align 16 captures(none) dereferenceable(252) %0) local_unnamed_addr #13 align 2 {
  %2 = getelementptr inbounds nuw i8, ptr %0, i64 248
  %3 = load i32, ptr %2, align 8, !tbaa !38
  %4 = getelementptr inbounds nuw i8, ptr %0, i64 72
  %5 = load i8, ptr %4, align 8, !tbaa !24, !range !42, !noundef !43
  %6 = trunc nuw i8 %5 to i1
  %7 = getelementptr inbounds nuw i8, ptr %0, i64 68
  %8 = load i32, ptr %7, align 4
  %.pn.v = select i1 %6, i32 4, i32 6
  %.pn = shl i32 %8, %.pn.v
  %9 = shl i32 %3, 5
  %10 = add i32 %9, 256
  %.0 = add i32 %10, %.pn
  ret i32 %.0
}